target datalayout = "e-m:e-p270:32:32-p271:32:32-p272:64:64-i64:64-i128:128-f80:128-n8:16:32:64-S128"
target triple = "x86_64-pc-linux-gnu"

%struct._zval_struct = type { %union._zend_value, %union.anon, %union.anon.3 }
%union._zend_value = type { i64 }
%union.anon = type { i32 }
%union.anon.3 = type { i32 }
%struct._zend_refcounted_h = type { i32, %union.anon.4 }
%union.anon.4 = type { i32 }
%struct.anon.1 = type { i8, i8, %union.anon.2 }
%union.anon.2 = type { i16 }
%struct._zend_string = type { %struct._zend_refcounted_h, i64, i64, [1 x i8] }

; Function Attrs: nounwind uwtable
define internal i32 @ct_eval_add_obj_prop(ptr noundef %0, ptr noundef %1, ptr noundef %2) #0 {
  %4 = alloca ptr, align 8
  %5 = alloca ptr, align 8
  %6 = alloca i1, align 1
  %7 = alloca ptr, align 8
  %8 = alloca i64, align 8
  %9 = alloca ptr, align 8
  %10 = alloca ptr, align 8
  %11 = alloca ptr, align 8
  %12 = alloca ptr, align 8
  %13 = alloca ptr, align 8
  %14 = alloca ptr, align 8
  %15 = alloca i64, align 8
  %16 = alloca ptr, align 8
  %17 = alloca i32, align 4
  %18 = alloca ptr, align 8
  %19 = alloca ptr, align 8
  %20 = alloca ptr, align 8
  store ptr %0, ptr %18, align 8
  store ptr %1, ptr %19, align 8
  store ptr %2, ptr %20, align 8
  %21 = load ptr, ptr %20, align 8
  store ptr %21, ptr %16, align 8
  %22 = load ptr, ptr %16, align 8
  %23 = getelementptr inbounds %struct._zval_struct, ptr %22, i32 0, i32 1
  %24 = load i8, ptr %23, align 8
  %25 = zext i8 %24 to i32
  switch i32 %25, label %89 [
    i32 6, label %26
  ]

26:                                               ; preds = %3
  %27 = load ptr, ptr %18, align 8
  %28 = getelementptr inbounds %struct._zval_struct, ptr %27, i32 0, i32 0
  %29 = load ptr, ptr %28, align 8
  %30 = load ptr, ptr %20, align 8
  %31 = getelementptr inbounds %struct._zval_struct, ptr %30, i32 0, i32 0
  %32 = load ptr, ptr %31, align 8
  %33 = load ptr, ptr %19, align 8
  store ptr %29, ptr %12, align 8
  store ptr %32, ptr %13, align 8
  store ptr %33, ptr %14, align 8
  %34 = load ptr, ptr %13, align 8
  %35 = getelementptr inbounds %struct._zend_string, ptr %34, i32 0, i32 3
  %36 = load ptr, ptr %13, align 8
  %37 = getelementptr inbounds %struct._zend_string, ptr %36, i32 0, i32 2
  %38 = load i64, ptr %37, align 8
  store ptr %35, ptr %7, align 8
  store i64 %38, ptr %8, align 8
  store ptr %15, ptr %9, align 8
  %39 = load ptr, ptr %7, align 8
  store ptr %39, ptr %10, align 8
  %40 = load ptr, ptr %10, align 8
  %41 = load i8, ptr %40, align 1
  %42 = sext i8 %41 to i32
  %43 = icmp sgt i32 %42, 57
  br i1 %43, label %44, label %45

44:                                               ; preds = %26
  store i1 false, ptr %6, align 1
  br label %75

45:                                               ; preds = %26
  %46 = load ptr, ptr %10, align 8
  %47 = load i8, ptr %46, align 1
  %48 = sext i8 %47 to i32
  %49 = icmp slt i32 %48, 48
  br i1 %49, label %50, label %70

50:                                               ; preds = %45
  %51 = load ptr, ptr %10, align 8
  %52 = load i8, ptr %51, align 1
  %53 = sext i8 %52 to i32
  %54 = icmp ne i32 %53, 45
  br i1 %54, label %55, label %56

55:                                               ; preds = %50
  store i1 false, ptr %6, align 1
  br label %75

56:                                               ; preds = %50
  %57 = load ptr, ptr %10, align 8
  %58 = getelementptr inbounds i8, ptr %57, i32 1
  store ptr %58, ptr %10, align 8
  %59 = load ptr, ptr %10, align 8
  %60 = load i8, ptr %59, align 1
  %61 = sext i8 %60 to i32
  %62 = icmp sgt i32 %61, 57
  br i1 %62, label %68, label %63

63:                                               ; preds = %56
  %64 = load ptr, ptr %10, align 8
  %65 = load i8, ptr %64, align 1
  %66 = sext i8 %65 to i32
  %67 = icmp slt i32 %66, 48
  br i1 %67, label %68, label %69

68:                                               ; preds = %63, %56
  store i1 false, ptr %6, align 1
  br label %75

69:                                               ; preds = %63
  br label %70

70:                                               ; preds = %69, %45
  %71 = load ptr, ptr %7, align 8
  %72 = load i64, ptr %8, align 8
  %73 = load ptr, ptr %9, align 8
  %74 = call zeroext i1 @_zend_handle_numeric_str_ex(ptr noundef %71, i64 noundef %72, ptr noundef %73) #10
  store i1 %74, ptr %6, align 1
  br label %75

75:                                               ; preds = %70, %68, %55, %44
  %76 = load i1, ptr %6, align 1
  br i1 %76, label %77, label %82

77:                                               ; preds = %75
  %78 = load ptr, ptr %12, align 8
  %79 = load i64, ptr %15, align 8
  %80 = load ptr, ptr %14, align 8
  %81 = call ptr @zend_hash_index_update(ptr noundef %78, i64 noundef %79, ptr noundef %80) #10
  store ptr %81, ptr %11, align 8
  br label %87

82:                                               ; preds = %75
  %83 = load ptr, ptr %12, align 8
  %84 = load ptr, ptr %13, align 8
  %85 = load ptr, ptr %14, align 8
  %86 = call ptr @zend_hash_update(ptr noundef %83, ptr noundef %84, ptr noundef %85) #10
  store ptr %86, ptr %11, align 8
  br label %87

87:                                               ; preds = %82, %77
  %88 = load ptr, ptr %11, align 8
  store ptr %88, ptr %19, align 8
  br label %90

89:                                               ; preds = %3
  store i32 -1, ptr %17, align 4
  br label %113

90:                                               ; preds = %87
  br label %91

91:                                               ; preds = %90
  %92 = load ptr, ptr %19, align 8
  %93 = getelementptr inbounds %struct._zval_struct, ptr %92, i32 0, i32 1
  %94 = getelementptr inbounds %struct.anon.1, ptr %93, i32 0, i32 1
  %95 = load i8, ptr %94, align 1
  %96 = zext i8 %95 to i32
  %97 = icmp ne i32 %96, 0
  br i1 %97, label %98, label %111

98:                                               ; preds = %91
  %99 = load ptr, ptr %19, align 8
  store ptr %99, ptr %5, align 8
  %100 = load ptr, ptr %5, align 8
  %101 = getelementptr inbounds %struct._zval_struct, ptr %100, i32 0, i32 1
  %102 = getelementptr inbounds %struct.anon.1, ptr %101, i32 0, i32 1
  %103 = load i8, ptr %102, align 1
  %104 = zext i8 %103 to i32
  %105 = icmp ne i32 %104, 0
  call void @llvm.assume(i1 %105)
  %106 = load ptr, ptr %5, align 8
  %107 = load ptr, ptr %106, align 8
  store ptr %107, ptr %4, align 8
  %108 = load ptr, ptr %4, align 8
  %109 = load i32, ptr %108, align 4
  %110 = add i32 %109, 1
  store i32 %110, ptr %108, align 4
  br label %111

111:                                              ; preds = %98, %91
  br label %112

112:                                              ; preds = %111
  store i32 0, ptr %17, align 4
  br label %113

113:                                              ; preds = %112, %89
  %114 = load i32, ptr %17, align 4
  ret i32 %114
}

; Function Attrs: nounwind uwtable
define internal void @empty_partial_object(ptr noundef %0) #0 {
  %2 = alloca ptr, align 8
  store ptr %0, ptr %2, align 8
  %3 = load ptr, ptr %2, align 8
  %4 = getelementptr inbounds %struct._zval_struct, ptr %3, i32 0, i32 1
  store i32 508, ptr %4, align 8
  %5 = call ptr @_zend_new_array_0()
  %6 = load ptr, ptr %2, align 8
  %7 = getelementptr inbounds %struct._zval_struct, ptr %6, i32 0, i32 0
  store ptr %5, ptr %7, align 8
  ret void
}

; Function Attrs: nounwind uwtable
define internal i32 @ct_eval_assign_obj(ptr noundef %0, ptr noundef %1, ptr noundef %2) #0 {
  %4 = alloca ptr, align 8
  %5 = alloca i32, align 4
  %6 = alloca ptr, align 8
  %7 = alloca ptr, align 8
  %8 = alloca ptr, align 8
  store ptr %0, ptr %6, align 8
  store ptr %1, ptr %7, align 8
  store ptr %2, ptr %8, align 8
  %9 = load ptr, ptr %6, align 8
  store ptr %9, ptr %4, align 8
  %10 = load ptr, ptr %4, align 8
  %11 = getelementptr inbounds %struct._zval_struct, ptr %10, i32 0, i32 1
  %12 = load i8, ptr %11, align 8
  %13 = zext i8 %12 to i32
  switch i32 %13, label %21 [
    i32 1, label %14
    i32 2, label %14
    i32 252, label %16
  ]

14:                                               ; preds = %3, %3
  %15 = load ptr, ptr %6, align 8
  call void @empty_partial_object(ptr noundef %15)
  br label %16

16:                                               ; preds = %14, %3
  %17 = load ptr, ptr %6, align 8
  %18 = load ptr, ptr %7, align 8
  %19 = load ptr, ptr %8, align 8
  %20 = call i32 @ct_eval_add_obj_prop(ptr noundef %17, ptr noundef %18, ptr noundef %19)
  store i32 %20, ptr %5, align 4
  br label %22

21:                                               ; preds = %3
  store i32 -1, ptr %5, align 4
  br label %22

22:                                               ; preds = %21, %16
  %23 = load i32, ptr %5, align 4
  ret i32 %23
}