; Function Attrs: nounwind uwtable
define internal fastcc noundef i32 @ct_eval_assign_obj(ptr nocapture noundef %0, ptr noundef %1, ptr nocapture noundef readonly %2) unnamed_addr #0 {
  %4 = alloca i64, align 8
  %5 = getelementptr inbounds i8, ptr %0, i64 8
  %6 = load i8, ptr %5, align 8
  switch i8 %6, label %40 [
    i8 1, label %7
    i8 2, label %7
    i8 -4, label %9
  ]

7:                                                ; preds = %3, %3
  store i32 508, ptr %5, align 8
  %8 = tail call ptr @_zend_new_array_0() #13
  store ptr %8, ptr %0, align 8
  br label %9

9:                                                ; preds = %7, %3
  call void @llvm.lifetime.start.p0(i64 8, ptr nonnull %4)
  %10 = getelementptr inbounds i8, ptr %2, i64 8
  %11 = load i8, ptr %10, align 8
  %cond.i = icmp eq i8 %11, 6
  br i1 %cond.i, label %12, label %ct_eval_add_obj_prop.exit

12:                                               ; preds = %9
  %13 = load ptr, ptr %0, align 8
  %14 = load ptr, ptr %2, align 8
  %15 = getelementptr inbounds i8, ptr %14, i64 24
  %16 = getelementptr inbounds i8, ptr %14, i64 16
  %17 = load i64, ptr %16, align 8
  %18 = load i8, ptr %15, align 1
  %19 = icmp sgt i8 %18, 57
  br i1 %19, label %.critedge.i, label %20

20:                                               ; preds = %12
  %21 = icmp slt i8 %18, 48
  br i1 %21, label %22, label %27

22:                                               ; preds = %20
  %.not.i = icmp eq i8 %18, 45
  br i1 %.not.i, label %23, label %.critedge.i

23:                                               ; preds = %22
  %24 = getelementptr inbounds i8, ptr %14, i64 25
  %25 = load i8, ptr %24, align 1
  %26 = add i8 %25, -58
  %or.cond.i = icmp ult i8 %26, -10
  br i1 %or.cond.i, label %.critedge.i, label %27

27:                                               ; preds = %23, %20
  %28 = call zeroext i1 @_zend_handle_numeric_str_ex(ptr noundef nonnull %15, i64 noundef %17, ptr noundef nonnull %4) #13
  br i1 %28, label %29, label %.critedge.i

29:                                               ; preds = %27
  %30 = load i64, ptr %4, align 8
  %31 = call ptr @zend_hash_index_update(ptr noundef %13, i64 noundef %30, ptr noundef %1) #13
  br label %33

.critedge.i:                                      ; preds = %27, %23, %22, %12
  %32 = call ptr @zend_hash_update(ptr noundef %13, ptr noundef nonnull %14, ptr noundef %1) #13
  br label %33

33:                                               ; preds = %.critedge.i, %29
  %.030.i = phi ptr [ %31, %29 ], [ %32, %.critedge.i ]
  %34 = getelementptr inbounds i8, ptr %.030.i, i64 9
  %35 = load i8, ptr %34, align 1
  %.not33.i = icmp eq i8 %35, 0
  br i1 %.not33.i, label %ct_eval_add_obj_prop.exit, label %36

36:                                               ; preds = %33
  %37 = load ptr, ptr %.030.i, align 8
  %38 = load i32, ptr %37, align 4
  %39 = add i32 %38, 1
  store i32 %39, ptr %37, align 4
  br label %ct_eval_add_obj_prop.exit

ct_eval_add_obj_prop.exit:                        ; preds = %9, %33, %36
  %.029.i = phi i32 [ -1, %9 ], [ 0, %33 ], [ 0, %36 ]
  call void @llvm.lifetime.end.p0(i64 8, ptr nonnull %4)
  br label %40

40:                                               ; preds = %3, %ct_eval_add_obj_prop.exit
  %.0 = phi i32 [ %.029.i, %ct_eval_add_obj_prop.exit ], [ -1, %3 ]
  ret i32 %.0
}